; Function Attrs: nounwind uwtable
define internal void @scroll_end_cb(ptr nocapture noundef readonly %0) #0 {
  %2 = getelementptr inbounds nuw i8, ptr %0, i64 120
  %3 = load i8, ptr %2, align 8
  %4 = and i8 %3, 4
  %.not = icmp eq i8 %4, 0
  br i1 %.not, label %8, label %5

5:                                                ; preds = %1
  %6 = load ptr, ptr %0, align 8, !tbaa !31
  %7 = tail call i32 @lv_obj_send_event(ptr noundef %6, i32 noundef 14, ptr noundef null) #5
  br label %8

8:                                                ; preds = %5, %1
  ret void
}